target datalayout = "e-m:e-p270:32:32-p271:32:32-p272:64:64-i64:64-i128:128-f80:128-n8:16:32:64-S128"
target triple = "x86_64-pc-linux-gnu"

; Function Attrs: mustprogress uwtable
define noundef i32 @_ZN14VrmlTranslator10UTF8Buffer4ReadEv(ptr noundef nonnull align 8 dereferenceable(49) %0) unnamed_addr #1 align 2 {
  %2 = alloca ptr, align 8
  %3 = alloca i32, align 4
  %4 = alloca i32, align 4
  %5 = alloca i32, align 4
  %6 = alloca i32, align 4
  %7 = alloca i32, align 4
  %8 = alloca i32, align 4
  %9 = alloca i32, align 4
  %10 = alloca i32, align 4
  %11 = alloca i32, align 4
  %12 = alloca i32, align 4
  store ptr %0, ptr %2, align 8
  %13 = load ptr, ptr %2, align 8
  br label %14

14:                                               ; preds = %26, %1
  %15 = call noundef i32 @_ZN14VrmlTranslator6Buffer4ReadEv(ptr noundef nonnull align 8 dereferenceable(49) %13)
  store i32 %15, ptr %3, align 4
  br label %16

16:                                               ; preds = %14
  %17 = load i32, ptr %3, align 4
  %18 = icmp sge i32 %17, 128
  br i1 %18, label %19, label %26

19:                                               ; preds = %16
  %20 = load i32, ptr %3, align 4
  %21 = and i32 %20, 192
  %22 = icmp ne i32 %21, 192
  br i1 %22, label %23, label %26

23:                                               ; preds = %19
  %24 = load i32, ptr %3, align 4
  %25 = icmp ne i32 %24, 65536
  br label %26

26:                                               ; preds = %23, %19, %16
  %27 = phi i1 [ false, %19 ], [ false, %16 ], [ %25, %23 ]
  br i1 %27, label %14, label %28, !llvm.loop !5

28:                                               ; preds = %26
  %29 = load i32, ptr %3, align 4
  %30 = icmp slt i32 %29, 128
  br i1 %30, label %34, label %31

31:                                               ; preds = %28
  %32 = load i32, ptr %3, align 4
  %33 = icmp eq i32 %32, 65536
  br i1 %33, label %34, label %35

34:                                               ; preds = %31, %28
  br label %98

35:                                               ; preds = %31
  %36 = load i32, ptr %3, align 4
  %37 = and i32 %36, 240
  %38 = icmp eq i32 %37, 240
  br i1 %38, label %39, label %61

39:                                               ; preds = %35
  %40 = load i32, ptr %3, align 4
  %41 = and i32 %40, 7
  store i32 %41, ptr %4, align 4
  %42 = call noundef i32 @_ZN14VrmlTranslator6Buffer4ReadEv(ptr noundef nonnull align 8 dereferenceable(49) %13)
  store i32 %42, ptr %3, align 4
  %43 = load i32, ptr %3, align 4
  %44 = and i32 %43, 63
  store i32 %44, ptr %5, align 4
  %45 = call noundef i32 @_ZN14VrmlTranslator6Buffer4ReadEv(ptr noundef nonnull align 8 dereferenceable(49) %13)
  store i32 %45, ptr %3, align 4
  %46 = load i32, ptr %3, align 4
  %47 = and i32 %46, 63
  store i32 %47, ptr %6, align 4
  %48 = call noundef i32 @_ZN14VrmlTranslator6Buffer4ReadEv(ptr noundef nonnull align 8 dereferenceable(49) %13)
  store i32 %48, ptr %3, align 4
  %49 = load i32, ptr %3, align 4
  %50 = and i32 %49, 63
  store i32 %50, ptr %7, align 4
  %51 = load i32, ptr %4, align 4
  %52 = shl i32 %51, 6
  %53 = load i32, ptr %5, align 4
  %54 = or i32 %52, %53
  %55 = shl i32 %54, 6
  %56 = load i32, ptr %6, align 4
  %57 = or i32 %55, %56
  %58 = shl i32 %57, 6
  %59 = load i32, ptr %7, align 4
  %60 = or i32 %58, %59
  store i32 %60, ptr %3, align 4
  br label %97

61:                                               ; preds = %35
  %62 = load i32, ptr %3, align 4
  %63 = and i32 %62, 224
  %64 = icmp eq i32 %63, 224
  br i1 %64, label %65, label %81

65:                                               ; preds = %61
  %66 = load i32, ptr %3, align 4
  %67 = and i32 %66, 15
  store i32 %67, ptr %8, align 4
  %68 = call noundef i32 @_ZN14VrmlTranslator6Buffer4ReadEv(ptr noundef nonnull align 8 dereferenceable(49) %13)
  store i32 %68, ptr %3, align 4
  %69 = load i32, ptr %3, align 4
  %70 = and i32 %69, 63
  store i32 %70, ptr %9, align 4
  %71 = call noundef i32 @_ZN14VrmlTranslator6Buffer4ReadEv(ptr noundef nonnull align 8 dereferenceable(49) %13)
  store i32 %71, ptr %3, align 4
  %72 = load i32, ptr %3, align 4
  %73 = and i32 %72, 63
  store i32 %73, ptr %10, align 4
  %74 = load i32, ptr %8, align 4
  %75 = shl i32 %74, 6
  %76 = load i32, ptr %9, align 4
  %77 = or i32 %75, %76
  %78 = shl i32 %77, 6
  %79 = load i32, ptr %10, align 4
  %80 = or i32 %78, %79
  store i32 %80, ptr %3, align 4
  br label %96

81:                                               ; preds = %61
  %82 = load i32, ptr %3, align 4
  %83 = and i32 %82, 192
  %84 = icmp eq i32 %83, 192
  br i1 %84, label %85, label %95

85:                                               ; preds = %81
  %86 = load i32, ptr %3, align 4
  %87 = and i32 %86, 31
  store i32 %87, ptr %11, align 4
  %88 = call noundef i32 @_ZN14VrmlTranslator6Buffer4ReadEv(ptr noundef nonnull align 8 dereferenceable(49) %13)
  store i32 %88, ptr %3, align 4
  %89 = load i32, ptr %3, align 4
  %90 = and i32 %89, 63
  store i32 %90, ptr %12, align 4
  %91 = load i32, ptr %11, align 4
  %92 = shl i32 %91, 6
  %93 = load i32, ptr %12, align 4
  %94 = or i32 %92, %93
  store i32 %94, ptr %3, align 4
  br label %95

95:                                               ; preds = %85, %81
  br label %96

96:                                               ; preds = %95, %65
  br label %97

97:                                               ; preds = %96, %39
  br label %98

98:                                               ; preds = %97, %34
  %99 = load i32, ptr %3, align 4
  ret i32 %99
}