; Function Attrs: mustprogress uwtable
define noundef i32 @_ZN14VrmlTranslator10UTF8Buffer4ReadEv(ptr noundef nonnull align 8 dereferenceable(49) %0) unnamed_addr #2 align 2 {
  br label %2

2:                                                ; preds = %5, %1
  %3 = tail call noundef i32 @_ZN14VrmlTranslator6Buffer4ReadEv(ptr noundef nonnull align 8 dereferenceable(49) %0), !range !5
  %4 = icmp ugt i32 %3, 127
  br i1 %4, label %5, label %.critedge.thread

5:                                                ; preds = %2
  %6 = and i32 %3, 192
  %7 = icmp ne i32 %6, 192
  %8 = icmp ne i32 %3, 65536
  %or.cond3 = and i1 %8, %7
  br i1 %or.cond3, label %2, label %.critedge, !llvm.loop !6

.critedge:                                        ; preds = %5
  %9 = icmp eq i32 %3, 65536
  br i1 %9, label %.critedge.thread, label %10

10:                                               ; preds = %.critedge
  %11 = and i32 %3, 240
  %12 = icmp eq i32 %11, 240
  br i1 %12, label %13, label %27

13:                                               ; preds = %10
  %14 = tail call noundef i32 @_ZN14VrmlTranslator6Buffer4ReadEv(ptr noundef nonnull align 8 dereferenceable(49) %0), !range !5
  %15 = and i32 %14, 63
  %16 = tail call noundef i32 @_ZN14VrmlTranslator6Buffer4ReadEv(ptr noundef nonnull align 8 dereferenceable(49) %0), !range !5
  %17 = tail call noundef i32 @_ZN14VrmlTranslator6Buffer4ReadEv(ptr noundef nonnull align 8 dereferenceable(49) %0), !range !5
  %18 = and i32 %17, 63
  %19 = shl nuw nsw i32 %3, 6
  %20 = and i32 %19, 448
  %21 = or disjoint i32 %15, %20
  %22 = shl nuw nsw i32 %21, 12
  %23 = shl nuw nsw i32 %16, 6
  %24 = and i32 %23, 4032
  %25 = or disjoint i32 %22, %24
  %26 = or disjoint i32 %25, %18
  br label %.critedge.thread

27:                                               ; preds = %10
  %28 = and i32 %3, 224
  %29 = icmp eq i32 %28, 224
  br i1 %29, label %30, label %40

30:                                               ; preds = %27
  %31 = tail call noundef i32 @_ZN14VrmlTranslator6Buffer4ReadEv(ptr noundef nonnull align 8 dereferenceable(49) %0), !range !5
  %32 = and i32 %31, 63
  %33 = tail call noundef i32 @_ZN14VrmlTranslator6Buffer4ReadEv(ptr noundef nonnull align 8 dereferenceable(49) %0), !range !5
  %34 = and i32 %33, 63
  %35 = shl nuw nsw i32 %3, 6
  %36 = and i32 %35, 960
  %37 = or disjoint i32 %32, %36
  %38 = shl nuw nsw i32 %37, 6
  %39 = or disjoint i32 %38, %34
  br label %.critedge.thread

40:                                               ; preds = %27
  %41 = icmp eq i32 %6, 192
  br i1 %41, label %42, label %.critedge.thread

42:                                               ; preds = %40
  %43 = tail call noundef i32 @_ZN14VrmlTranslator6Buffer4ReadEv(ptr noundef nonnull align 8 dereferenceable(49) %0), !range !5
  %44 = and i32 %43, 63
  %45 = shl nuw nsw i32 %3, 6
  %46 = and i32 %45, 1984
  %47 = or disjoint i32 %44, %46
  br label %.critedge.thread

.critedge.thread:                                 ; preds = %2, %13, %40, %42, %30, %.critedge
  %.0 = phi i32 [ 65536, %.critedge ], [ %26, %13 ], [ %39, %30 ], [ %47, %42 ], [ %3, %40 ], [ %3, %2 ]
  ret i32 %.0
}